; Function Attrs: mustprogress uwtable
define hidden void @_ZN16char_decl_pluginC2Ev(ptr noundef nonnull align 8 dereferenceable(40) initializes((0, 20), (24, 32)) %0) unnamed_addr #3 align 2 personality ptr @__gxx_personality_v0 {
  %2 = getelementptr inbounds nuw i8, ptr %0, i64 8
  store ptr null, ptr %2, align 8, !tbaa !3
  %3 = getelementptr inbounds nuw i8, ptr %0, i64 16
  store i32 -1, ptr %3, align 8, !tbaa !10
  store ptr getelementptr inbounds nuw inrange(-16, 168) (i8, ptr @_ZTV16char_decl_plugin, i64 16), ptr %0, align 8, !tbaa !11
  %4 = getelementptr inbounds nuw i8, ptr %0, i64 24
  store ptr null, ptr %4, align 8, !tbaa !13
  %5 = getelementptr inbounds nuw i8, ptr %0, i64 32
  tail call void @_ZN6symbolC1EPKc(ptr noundef nonnull align 8 dereferenceable(8) %5, ptr noundef nonnull @.str)
  ret void
}